; Function Attrs: nounwind uwtable
define range(i32 0, 2) i32 @PKCS7_set_attributes(ptr noundef captures(none) %0, ptr noundef %1) local_unnamed_addr #0 {
  %3 = getelementptr inbounds nuw i8, ptr %0, i64 48
  %4 = load ptr, ptr %3, align 8, !tbaa !100
  tail call void @OPENSSL_sk_pop_free(ptr noundef %4, ptr noundef nonnull @X509_ATTRIBUTE_free) #4
  %5 = tail call ptr @OPENSSL_sk_deep_copy(ptr noundef %1, ptr noundef nonnull @X509_ATTRIBUTE_dup, ptr noundef nonnull @X509_ATTRIBUTE_free) #4
  store ptr %5, ptr %3, align 8, !tbaa !100
  %6 = icmp ne ptr %5, null
  %. = zext i1 %6 to i32
  ret i32 %.
}